target datalayout = "e-m:e-p270:32:32-p271:32:32-p272:64:64-i64:64-i128:128-f80:128-n8:16:32:64-S128"
target triple = "x86_64-pc-linux-gnu"

@.str.213 = private unnamed_addr constant [13 x i8] c"LBT-RU:%s:%u\00", align 1
@.str.214 = private unnamed_addr constant [18 x i8] c"LBT-RU:%s:%u:%08x\00", align 1

; Function Attrs: null_pointer_is_valid sspstrong uwtable
define internal ptr @lbtru_transport_source_string_format(ptr noundef %0, ptr noundef %1, i16 noundef zeroext %2, i32 noundef %3) #0 {
  %5 = alloca ptr, align 8
  %6 = alloca ptr, align 8
  %7 = alloca i16, align 2
  %8 = alloca i32, align 4
  %9 = alloca ptr, align 8
  store ptr %0, ptr %5, align 8
  store ptr %1, ptr %6, align 8
  store i16 %2, ptr %7, align 2
  store i32 %3, ptr %8, align 4
  call void @llvm.lifetime.start.p0(i64 8, ptr %9) #9
  store ptr null, ptr %9, align 8
  %10 = load i32, ptr %8, align 4
  %11 = icmp eq i32 %10, 0
  br i1 %11, label %12, label %20

12:                                               ; preds = %4
  %13 = load ptr, ptr %5, align 8
  %14 = load ptr, ptr %5, align 8
  %15 = load ptr, ptr %6, align 8
  %16 = call ptr @address_to_str(ptr noundef %14, ptr noundef %15)
  %17 = load i16, ptr %7, align 2
  %18 = zext i16 %17 to i32
  %19 = call noalias ptr (ptr, ptr, ...) @wmem_strdup_printf(ptr noundef %13, ptr noundef @.str.213, ptr noundef %16, i32 noundef %18)
  store ptr %19, ptr %9, align 8
  br label %29

20:                                               ; preds = %4
  %21 = load ptr, ptr %5, align 8
  %22 = load ptr, ptr %5, align 8
  %23 = load ptr, ptr %6, align 8
  %24 = call ptr @address_to_str(ptr noundef %22, ptr noundef %23)
  %25 = load i16, ptr %7, align 2
  %26 = zext i16 %25 to i32
  %27 = load i32, ptr %8, align 4
  %28 = call noalias ptr (ptr, ptr, ...) @wmem_strdup_printf(ptr noundef %21, ptr noundef @.str.214, ptr noundef %24, i32 noundef %26, i32 noundef %27)
  store ptr %28, ptr %9, align 8
  br label %29

29:                                               ; preds = %20, %12
  %30 = load ptr, ptr %9, align 8
  call void @llvm.lifetime.end.p0(i64 8, ptr %9) #9
  ret ptr %30
}

; Function Attrs: null_pointer_is_valid sspstrong uwtable
define hidden ptr @lbtru_transport_source_string(ptr noundef %0, i16 noundef zeroext %1, i32 noundef %2) #0 {
  %4 = alloca ptr, align 8
  %5 = alloca i16, align 2
  %6 = alloca i32, align 4
  store ptr %0, ptr %4, align 8
  store i16 %1, ptr %5, align 2
  store i32 %2, ptr %6, align 4
  %7 = call ptr @wmem_file_scope()
  %8 = load ptr, ptr %4, align 8
  %9 = load i16, ptr %5, align 2
  %10 = load i32, ptr %6, align 4
  %11 = call ptr @lbtru_transport_source_string_format(ptr noundef %7, ptr noundef %8, i16 noundef zeroext %9, i32 noundef %10)
  ret ptr %11
}