; Function Attrs: null_pointer_is_valid sspstrong uwtable
define hidden noalias ptr @lbtru_transport_source_string(ptr noundef %0, i16 noundef zeroext %1, i32 noundef %2) local_unnamed_addr #0 {
  %4 = tail call ptr @wmem_file_scope()
  %5 = icmp eq i32 %2, 0
  %6 = tail call ptr @address_to_str(ptr noundef %4, ptr noundef %0)
  %7 = zext i16 %1 to i32
  br i1 %5, label %8, label %10

8:                                                ; preds = %3
  %9 = tail call noalias ptr (ptr, ptr, ...) @wmem_strdup_printf(ptr noundef %4, ptr noundef nonnull @.str.213, ptr noundef %6, i32 noundef %7)
  br label %lbtru_transport_source_string_format.exit

10:                                               ; preds = %3
  %11 = tail call noalias ptr (ptr, ptr, ...) @wmem_strdup_printf(ptr noundef %4, ptr noundef nonnull @.str.214, ptr noundef %6, i32 noundef %7, i32 noundef %2)
  br label %lbtru_transport_source_string_format.exit

lbtru_transport_source_string_format.exit:        ; preds = %8, %10
  %.0.i = phi ptr [ %9, %8 ], [ %11, %10 ]
  ret ptr %.0.i
}